target datalayout = "e-m:e-p270:32:32-p271:32:32-p272:64:64-i64:64-i128:128-f80:128-n8:16:32:64-S128"
target triple = "x86_64-pc-linux-gnu"

@.str.44 = private unnamed_addr constant [17 x i8] c"CVodeGetNumSteps\00", align 1
@.str.53 = private unnamed_addr constant [20 x i8] c"CVodeGetNumRhsEvals\00", align 1
@.str.54 = private unnamed_addr constant [25 x i8] c"CVodeGetNumLinSolvSetups\00", align 1
@.str.55 = private unnamed_addr constant [24 x i8] c"CVodeGetNumErrTestFails\00", align 1
@.str.56 = private unnamed_addr constant [27 x i8] c"CVodeGetNumNonlinSolvIters\00", align 1
@.str.57 = private unnamed_addr constant [31 x i8] c"CVodeGetNumNonlinSolvConvFails\00", align 1
@.str.58 = private unnamed_addr constant [26 x i8] c"CVodeGetNumStepSolveFails\00", align 1
@.str.59 = private unnamed_addr constant [24 x i8] c"CVodeGetSensNumRhsEvals\00", align 1
@.str.60 = private unnamed_addr constant [24 x i8] c"CVodeGetNumRhsEvalsSens\00", align 1
@.str.61 = private unnamed_addr constant [29 x i8] c"CVodeGetSensNumLinSolvSetups\00", align 1
@.str.62 = private unnamed_addr constant [28 x i8] c"CVodeGetSensNumErrTestFails\00", align 1
@.str.63 = private unnamed_addr constant [31 x i8] c"CVodeGetSensNumNonlinSolvIters\00", align 1
@.str.64 = private unnamed_addr constant [35 x i8] c"CVodeGetSensNumNonlinSolvConvFails\00", align 1
@.str.65 = private unnamed_addr constant [30 x i8] c"CVodeGetNumStepSensSolveFails\00", align 1
@.str.66 = private unnamed_addr constant [20 x i8] c"CVodeGetNumJacEvals\00", align 1
@.str.67 = private unnamed_addr constant [23 x i8] c"CVodeGetNumLinRhsEvals\00", align 1
@.str.68 = private unnamed_addr constant [20 x i8] c"\0AFinal Statistics:\0A\00", align 1
@.str.69 = private unnamed_addr constant [65 x i8] c"nst = %-6ld nfe = %-6ld nsetups = %-6ld nfeLS = %-6ld nje = %ld\0A\00", align 1
@.str.70 = private unnamed_addr constant [55 x i8] c"nni = %-6ld nnf = %-6ld netf = %-6ld    ncfn = %-6ld\0A\0A\00", align 1
@.str.71 = private unnamed_addr constant [44 x i8] c"nfSe = %-6ld nfeS = %-6ld nsetupsS = %-6ld\0A\00", align 1
@.str.72 = private unnamed_addr constant [56 x i8] c"nniS = %-6ld nnfS = %-6ld netfS = %-6ld ncfnS = %-6ld\0A\0A\00", align 1
@stderr = external global ptr, align 8
@.str.73 = private unnamed_addr constant [55 x i8] c"\0ASUNDIALS_ERROR: %s() failed - returned NULL pointer\0A\0A\00", align 1
@.str.74 = private unnamed_addr constant [48 x i8] c"\0ASUNDIALS_ERROR: %s() failed with retval = %d\0A\0A\00", align 1
@.str.75 = private unnamed_addr constant [53 x i8] c"\0AMEMORY_ERROR: %s() failed - returned NULL pointer\0A\0A\00", align 1

; Function Attrs: nounwind uwtable
define internal i32 @check_retval(ptr noundef %0, ptr noundef %1, i32 noundef %2) #0 {
  %4 = alloca i32, align 4
  %5 = alloca ptr, align 8
  %6 = alloca ptr, align 8
  %7 = alloca i32, align 4
  %8 = alloca ptr, align 8
  %9 = alloca i32, align 4
  store ptr %0, ptr %5, align 8, !tbaa !11
  store ptr %1, ptr %6, align 8, !tbaa !33
  store i32 %2, ptr %7, align 4, !tbaa !4
  call void @llvm.lifetime.start.p0(i64 8, ptr %8) #8
  %10 = load i32, ptr %7, align 4, !tbaa !4
  %11 = icmp eq i32 %10, 0
  br i1 %11, label %12, label %19

12:                                               ; preds = %3
  %13 = load ptr, ptr %5, align 8, !tbaa !11
  %14 = icmp eq ptr %13, null
  br i1 %14, label %15, label %19

15:                                               ; preds = %12
  %16 = load ptr, ptr @stderr, align 8, !tbaa !35
  %17 = load ptr, ptr %6, align 8, !tbaa !33
  %18 = call i32 (ptr, ptr, ...) @fprintf(ptr noundef %16, ptr noundef @.str.73, ptr noundef %17) #8
  store i32 1, ptr %4, align 4
  store i32 1, ptr %9, align 4
  br label %47

19:                                               ; preds = %12, %3
  %20 = load i32, ptr %7, align 4, !tbaa !4
  %21 = icmp eq i32 %20, 1
  br i1 %21, label %22, label %34

22:                                               ; preds = %19
  %23 = load ptr, ptr %5, align 8, !tbaa !11
  store ptr %23, ptr %8, align 8, !tbaa !31
  %24 = load ptr, ptr %8, align 8, !tbaa !31
  %25 = load i32, ptr %24, align 4, !tbaa !4
  %26 = icmp slt i32 %25, 0
  br i1 %26, label %27, label %33

27:                                               ; preds = %22
  %28 = load ptr, ptr @stderr, align 8, !tbaa !35
  %29 = load ptr, ptr %6, align 8, !tbaa !33
  %30 = load ptr, ptr %8, align 8, !tbaa !31
  %31 = load i32, ptr %30, align 4, !tbaa !4
  %32 = call i32 (ptr, ptr, ...) @fprintf(ptr noundef %28, ptr noundef @.str.74, ptr noundef %29, i32 noundef %31) #8
  store i32 1, ptr %4, align 4
  store i32 1, ptr %9, align 4
  br label %47

33:                                               ; preds = %22
  br label %45

34:                                               ; preds = %19
  %35 = load i32, ptr %7, align 4, !tbaa !4
  %36 = icmp eq i32 %35, 2
  br i1 %36, label %37, label %44

37:                                               ; preds = %34
  %38 = load ptr, ptr %5, align 8, !tbaa !11
  %39 = icmp eq ptr %38, null
  br i1 %39, label %40, label %44

40:                                               ; preds = %37
  %41 = load ptr, ptr @stderr, align 8, !tbaa !35
  %42 = load ptr, ptr %6, align 8, !tbaa !33
  %43 = call i32 (ptr, ptr, ...) @fprintf(ptr noundef %41, ptr noundef @.str.75, ptr noundef %42) #8
  store i32 1, ptr %4, align 4
  store i32 1, ptr %9, align 4
  br label %47

44:                                               ; preds = %37, %34
  br label %45

45:                                               ; preds = %44, %33
  br label %46

46:                                               ; preds = %45
  store i32 0, ptr %4, align 4
  store i32 1, ptr %9, align 4
  br label %47

47:                                               ; preds = %46, %40, %27, %15
  call void @llvm.lifetime.end.p0(i64 8, ptr %8) #8
  %48 = load i32, ptr %4, align 4
  ret i32 %48
}

; Function Attrs: nounwind uwtable
define internal void @PrintFinalStats(ptr noundef %0, i32 noundef %1) #0 {
  %3 = alloca ptr, align 8
  %4 = alloca i32, align 4
  %5 = alloca i64, align 8
  %6 = alloca i64, align 8
  %7 = alloca i64, align 8
  %8 = alloca i64, align 8
  %9 = alloca i64, align 8
  %10 = alloca i64, align 8
  %11 = alloca i64, align 8
  %12 = alloca i64, align 8
  %13 = alloca i64, align 8
  %14 = alloca i64, align 8
  %15 = alloca i64, align 8
  %16 = alloca i64, align 8
  %17 = alloca i64, align 8
  %18 = alloca i64, align 8
  %19 = alloca i64, align 8
  %20 = alloca i64, align 8
  %21 = alloca i32, align 4
  store ptr %0, ptr %3, align 8, !tbaa !11
  store i32 %1, ptr %4, align 4, !tbaa !4
  call void @llvm.lifetime.start.p0(i64 8, ptr %5) #8
  call void @llvm.lifetime.start.p0(i64 8, ptr %6) #8
  call void @llvm.lifetime.start.p0(i64 8, ptr %7) #8
  call void @llvm.lifetime.start.p0(i64 8, ptr %8) #8
  call void @llvm.lifetime.start.p0(i64 8, ptr %9) #8
  call void @llvm.lifetime.start.p0(i64 8, ptr %10) #8
  call void @llvm.lifetime.start.p0(i64 8, ptr %11) #8
  call void @llvm.lifetime.start.p0(i64 8, ptr %12) #8
  call void @llvm.lifetime.start.p0(i64 8, ptr %13) #8
  call void @llvm.lifetime.start.p0(i64 8, ptr %14) #8
  call void @llvm.lifetime.start.p0(i64 8, ptr %15) #8
  call void @llvm.lifetime.start.p0(i64 8, ptr %16) #8
  call void @llvm.lifetime.start.p0(i64 8, ptr %17) #8
  call void @llvm.lifetime.start.p0(i64 8, ptr %18) #8
  call void @llvm.lifetime.start.p0(i64 8, ptr %19) #8
  call void @llvm.lifetime.start.p0(i64 8, ptr %20) #8
  call void @llvm.lifetime.start.p0(i64 4, ptr %21) #8
  %22 = load ptr, ptr %3, align 8, !tbaa !11
  %23 = call i32 @CVodeGetNumSteps(ptr noundef %22, ptr noundef %5)
  store i32 %23, ptr %21, align 4, !tbaa !4
  %24 = call i32 @check_retval(ptr noundef %21, ptr noundef @.str.44, i32 noundef 1)
  %25 = load ptr, ptr %3, align 8, !tbaa !11
  %26 = call i32 @CVodeGetNumRhsEvals(ptr noundef %25, ptr noundef %6)
  store i32 %26, ptr %21, align 4, !tbaa !4
  %27 = call i32 @check_retval(ptr noundef %21, ptr noundef @.str.53, i32 noundef 1)
  %28 = load ptr, ptr %3, align 8, !tbaa !11
  %29 = call i32 @CVodeGetNumLinSolvSetups(ptr noundef %28, ptr noundef %7)
  store i32 %29, ptr %21, align 4, !tbaa !4
  %30 = call i32 @check_retval(ptr noundef %21, ptr noundef @.str.54, i32 noundef 1)
  %31 = load ptr, ptr %3, align 8, !tbaa !11
  %32 = call i32 @CVodeGetNumErrTestFails(ptr noundef %31, ptr noundef %12)
  store i32 %32, ptr %21, align 4, !tbaa !4
  %33 = call i32 @check_retval(ptr noundef %21, ptr noundef @.str.55, i32 noundef 1)
  %34 = load ptr, ptr %3, align 8, !tbaa !11
  %35 = call i32 @CVodeGetNumNonlinSolvIters(ptr noundef %34, ptr noundef %9)
  store i32 %35, ptr %21, align 4, !tbaa !4
  %36 = call i32 @check_retval(ptr noundef %21, ptr noundef @.str.56, i32 noundef 1)
  %37 = load ptr, ptr %3, align 8, !tbaa !11
  %38 = call i32 @CVodeGetNumNonlinSolvConvFails(ptr noundef %37, ptr noundef %10)
  store i32 %38, ptr %21, align 4, !tbaa !4
  %39 = call i32 @check_retval(ptr noundef %21, ptr noundef @.str.57, i32 noundef 1)
  %40 = load ptr, ptr %3, align 8, !tbaa !11
  %41 = call i32 @CVodeGetNumStepSolveFails(ptr noundef %40, ptr noundef %11)
  store i32 %41, ptr %21, align 4, !tbaa !4
  %42 = call i32 @check_retval(ptr noundef %21, ptr noundef @.str.58, i32 noundef 1)
  %43 = load i32, ptr %4, align 4, !tbaa !4
  %44 = icmp ne i32 %43, 0
  br i1 %44, label %45, label %67

45:                                               ; preds = %2
  %46 = load ptr, ptr %3, align 8, !tbaa !11
  %47 = call i32 @CVodeGetSensNumRhsEvals(ptr noundef %46, ptr noundef %14)
  store i32 %47, ptr %21, align 4, !tbaa !4
  %48 = call i32 @check_retval(ptr noundef %21, ptr noundef @.str.59, i32 noundef 1)
  %49 = load ptr, ptr %3, align 8, !tbaa !11
  %50 = call i32 @CVodeGetNumRhsEvalsSens(ptr noundef %49, ptr noundef %15)
  store i32 %50, ptr %21, align 4, !tbaa !4
  %51 = call i32 @check_retval(ptr noundef %21, ptr noundef @.str.60, i32 noundef 1)
  %52 = load ptr, ptr %3, align 8, !tbaa !11
  %53 = call i32 @CVodeGetSensNumLinSolvSetups(ptr noundef %52, ptr noundef %16)
  store i32 %53, ptr %21, align 4, !tbaa !4
  %54 = call i32 @check_retval(ptr noundef %21, ptr noundef @.str.61, i32 noundef 1)
  %55 = load ptr, ptr %3, align 8, !tbaa !11
  %56 = call i32 @CVodeGetSensNumErrTestFails(ptr noundef %55, ptr noundef %20)
  store i32 %56, ptr %21, align 4, !tbaa !4
  %57 = call i32 @check_retval(ptr noundef %21, ptr noundef @.str.62, i32 noundef 1)
  %58 = load ptr, ptr %3, align 8, !tbaa !11
  %59 = call i32 @CVodeGetSensNumNonlinSolvIters(ptr noundef %58, ptr noundef %17)
  store i32 %59, ptr %21, align 4, !tbaa !4
  %60 = call i32 @check_retval(ptr noundef %21, ptr noundef @.str.63, i32 noundef 1)
  %61 = load ptr, ptr %3, align 8, !tbaa !11
  %62 = call i32 @CVodeGetSensNumNonlinSolvConvFails(ptr noundef %61, ptr noundef %18)
  store i32 %62, ptr %21, align 4, !tbaa !4
  %63 = call i32 @check_retval(ptr noundef %21, ptr noundef @.str.64, i32 noundef 1)
  %64 = load ptr, ptr %3, align 8, !tbaa !11
  %65 = call i32 @CVodeGetNumStepSensSolveFails(ptr noundef %64, ptr noundef %19)
  store i32 %65, ptr %21, align 4, !tbaa !4
  %66 = call i32 @check_retval(ptr noundef %21, ptr noundef @.str.65, i32 noundef 1)
  br label %67

67:                                               ; preds = %45, %2
  %68 = load ptr, ptr %3, align 8, !tbaa !11
  %69 = call i32 @CVodeGetNumJacEvals(ptr noundef %68, ptr noundef %8)
  store i32 %69, ptr %21, align 4, !tbaa !4
  %70 = call i32 @check_retval(ptr noundef %21, ptr noundef @.str.66, i32 noundef 1)
  %71 = load ptr, ptr %3, align 8, !tbaa !11
  %72 = call i32 @CVodeGetNumLinRhsEvals(ptr noundef %71, ptr noundef %13)
  store i32 %72, ptr %21, align 4, !tbaa !4
  %73 = call i32 @check_retval(ptr noundef %21, ptr noundef @.str.67, i32 noundef 1)
  %74 = call i32 (ptr, ...) @printf(ptr noundef @.str.68)
  %75 = load i64, ptr %5, align 8, !tbaa !44
  %76 = load i64, ptr %6, align 8, !tbaa !44
  %77 = load i64, ptr %7, align 8, !tbaa !44
  %78 = load i64, ptr %13, align 8, !tbaa !44
  %79 = load i64, ptr %8, align 8, !tbaa !44
  %80 = call i32 (ptr, ...) @printf(ptr noundef @.str.69, i64 noundef %75, i64 noundef %76, i64 noundef %77, i64 noundef %78, i64 noundef %79)
  %81 = load i64, ptr %9, align 8, !tbaa !44
  %82 = load i64, ptr %10, align 8, !tbaa !44
  %83 = load i64, ptr %12, align 8, !tbaa !44
  %84 = load i64, ptr %11, align 8, !tbaa !44
  %85 = call i32 (ptr, ...) @printf(ptr noundef @.str.70, i64 noundef %81, i64 noundef %82, i64 noundef %83, i64 noundef %84)
  %86 = load i32, ptr %4, align 4, !tbaa !4
  %87 = icmp ne i32 %86, 0
  br i1 %87, label %88, label %98

88:                                               ; preds = %67
  %89 = load i64, ptr %14, align 8, !tbaa !44
  %90 = load i64, ptr %15, align 8, !tbaa !44
  %91 = load i64, ptr %16, align 8, !tbaa !44
  %92 = call i32 (ptr, ...) @printf(ptr noundef @.str.71, i64 noundef %89, i64 noundef %90, i64 noundef %91)
  %93 = load i64, ptr %17, align 8, !tbaa !44
  %94 = load i64, ptr %18, align 8, !tbaa !44
  %95 = load i64, ptr %20, align 8, !tbaa !44
  %96 = load i64, ptr %19, align 8, !tbaa !44
  %97 = call i32 (ptr, ...) @printf(ptr noundef @.str.72, i64 noundef %93, i64 noundef %94, i64 noundef %95, i64 noundef %96)
  br label %98

98:                                               ; preds = %88, %67
  call void @llvm.lifetime.end.p0(i64 4, ptr %21) #8
  call void @llvm.lifetime.end.p0(i64 8, ptr %20) #8
  call void @llvm.lifetime.end.p0(i64 8, ptr %19) #8
  call void @llvm.lifetime.end.p0(i64 8, ptr %18) #8
  call void @llvm.lifetime.end.p0(i64 8, ptr %17) #8
  call void @llvm.lifetime.end.p0(i64 8, ptr %16) #8
  call void @llvm.lifetime.end.p0(i64 8, ptr %15) #8
  call void @llvm.lifetime.end.p0(i64 8, ptr %14) #8
  call void @llvm.lifetime.end.p0(i64 8, ptr %13) #8
  call void @llvm.lifetime.end.p0(i64 8, ptr %12) #8
  call void @llvm.lifetime.end.p0(i64 8, ptr %11) #8
  call void @llvm.lifetime.end.p0(i64 8, ptr %10) #8
  call void @llvm.lifetime.end.p0(i64 8, ptr %9) #8
  call void @llvm.lifetime.end.p0(i64 8, ptr %8) #8
  call void @llvm.lifetime.end.p0(i64 8, ptr %7) #8
  call void @llvm.lifetime.end.p0(i64 8, ptr %6) #8
  call void @llvm.lifetime.end.p0(i64 8, ptr %5) #8
  ret void
}