; Function Attrs: nounwind uwtable
define internal fastcc void @PrintFinalStats(ptr noundef %0, i32 noundef %1) unnamed_addr #0 {
  %3 = alloca i64, align 8
  %4 = alloca i64, align 8
  %5 = alloca i64, align 8
  %6 = alloca i64, align 8
  %7 = alloca i64, align 8
  %8 = alloca i64, align 8
  %9 = alloca i64, align 8
  %10 = alloca i64, align 8
  %11 = alloca i64, align 8
  %12 = alloca i64, align 8
  %13 = alloca i64, align 8
  %14 = alloca i64, align 8
  %15 = alloca i64, align 8
  %16 = alloca i64, align 8
  %17 = alloca i64, align 8
  %18 = alloca i64, align 8
  call void @llvm.lifetime.start.p0(i64 8, ptr nonnull %3) #13
  call void @llvm.lifetime.start.p0(i64 8, ptr nonnull %4) #13
  call void @llvm.lifetime.start.p0(i64 8, ptr nonnull %5) #13
  call void @llvm.lifetime.start.p0(i64 8, ptr nonnull %6) #13
  call void @llvm.lifetime.start.p0(i64 8, ptr nonnull %7) #13
  call void @llvm.lifetime.start.p0(i64 8, ptr nonnull %8) #13
  call void @llvm.lifetime.start.p0(i64 8, ptr nonnull %9) #13
  call void @llvm.lifetime.start.p0(i64 8, ptr nonnull %10) #13
  call void @llvm.lifetime.start.p0(i64 8, ptr nonnull %11) #13
  call void @llvm.lifetime.start.p0(i64 8, ptr nonnull %12) #13
  call void @llvm.lifetime.start.p0(i64 8, ptr nonnull %13) #13
  call void @llvm.lifetime.start.p0(i64 8, ptr nonnull %14) #13
  call void @llvm.lifetime.start.p0(i64 8, ptr nonnull %15) #13
  call void @llvm.lifetime.start.p0(i64 8, ptr nonnull %16) #13
  call void @llvm.lifetime.start.p0(i64 8, ptr nonnull %17) #13
  call void @llvm.lifetime.start.p0(i64 8, ptr nonnull %18) #13
  %19 = call i32 @CVodeGetNumSteps(ptr noundef %0, ptr noundef nonnull %3) #13
  %20 = icmp slt i32 %19, 0
  br i1 %20, label %21, label %check_retval.exit

21:                                               ; preds = %2
  %22 = load ptr, ptr @stderr, align 8, !tbaa !9
  %23 = call i32 (ptr, ptr, ...) @fprintf(ptr noundef %22, ptr noundef nonnull @.str.74, ptr noundef nonnull @.str.44, i32 noundef %19) #17
  br label %check_retval.exit

check_retval.exit:                                ; preds = %2, %21
  %24 = call i32 @CVodeGetNumRhsEvals(ptr noundef %0, ptr noundef nonnull %4) #13
  %25 = icmp slt i32 %24, 0
  br i1 %25, label %26, label %check_retval.exit18

26:                                               ; preds = %check_retval.exit
  %27 = load ptr, ptr @stderr, align 8, !tbaa !9
  %28 = call i32 (ptr, ptr, ...) @fprintf(ptr noundef %27, ptr noundef nonnull @.str.74, ptr noundef nonnull @.str.53, i32 noundef %24) #17
  br label %check_retval.exit18

check_retval.exit18:                              ; preds = %check_retval.exit, %26
  %29 = call i32 @CVodeGetNumLinSolvSetups(ptr noundef %0, ptr noundef nonnull %5) #13
  %30 = icmp slt i32 %29, 0
  br i1 %30, label %31, label %check_retval.exit20

31:                                               ; preds = %check_retval.exit18
  %32 = load ptr, ptr @stderr, align 8, !tbaa !9
  %33 = call i32 (ptr, ptr, ...) @fprintf(ptr noundef %32, ptr noundef nonnull @.str.74, ptr noundef nonnull @.str.54, i32 noundef %29) #17
  br label %check_retval.exit20

check_retval.exit20:                              ; preds = %check_retval.exit18, %31
  %34 = call i32 @CVodeGetNumErrTestFails(ptr noundef %0, ptr noundef nonnull %10) #13
  %35 = icmp slt i32 %34, 0
  br i1 %35, label %36, label %check_retval.exit22

36:                                               ; preds = %check_retval.exit20
  %37 = load ptr, ptr @stderr, align 8, !tbaa !9
  %38 = call i32 (ptr, ptr, ...) @fprintf(ptr noundef %37, ptr noundef nonnull @.str.74, ptr noundef nonnull @.str.55, i32 noundef %34) #17
  br label %check_retval.exit22

check_retval.exit22:                              ; preds = %check_retval.exit20, %36
  %39 = call i32 @CVodeGetNumNonlinSolvIters(ptr noundef %0, ptr noundef nonnull %7) #13
  %40 = icmp slt i32 %39, 0
  br i1 %40, label %41, label %check_retval.exit24

41:                                               ; preds = %check_retval.exit22
  %42 = load ptr, ptr @stderr, align 8, !tbaa !9
  %43 = call i32 (ptr, ptr, ...) @fprintf(ptr noundef %42, ptr noundef nonnull @.str.74, ptr noundef nonnull @.str.56, i32 noundef %39) #17
  br label %check_retval.exit24

check_retval.exit24:                              ; preds = %check_retval.exit22, %41
  %44 = call i32 @CVodeGetNumNonlinSolvConvFails(ptr noundef %0, ptr noundef nonnull %8) #13
  %45 = icmp slt i32 %44, 0
  br i1 %45, label %46, label %check_retval.exit26

46:                                               ; preds = %check_retval.exit24
  %47 = load ptr, ptr @stderr, align 8, !tbaa !9
  %48 = call i32 (ptr, ptr, ...) @fprintf(ptr noundef %47, ptr noundef nonnull @.str.74, ptr noundef nonnull @.str.57, i32 noundef %44) #17
  br label %check_retval.exit26

check_retval.exit26:                              ; preds = %check_retval.exit24, %46
  %49 = call i32 @CVodeGetNumStepSolveFails(ptr noundef %0, ptr noundef nonnull %9) #13
  %50 = icmp slt i32 %49, 0
  br i1 %50, label %51, label %check_retval.exit28

51:                                               ; preds = %check_retval.exit26
  %52 = load ptr, ptr @stderr, align 8, !tbaa !9
  %53 = call i32 (ptr, ptr, ...) @fprintf(ptr noundef %52, ptr noundef nonnull @.str.74, ptr noundef nonnull @.str.58, i32 noundef %49) #17
  br label %check_retval.exit28

check_retval.exit28:                              ; preds = %check_retval.exit26, %51
  %.not = icmp eq i32 %1, 0
  br i1 %.not, label %check_retval.exit42, label %54

54:                                               ; preds = %check_retval.exit28
  %55 = call i32 @CVodeGetSensNumRhsEvals(ptr noundef %0, ptr noundef nonnull %12) #13
  %56 = icmp slt i32 %55, 0
  br i1 %56, label %57, label %check_retval.exit30

57:                                               ; preds = %54
  %58 = load ptr, ptr @stderr, align 8, !tbaa !9
  %59 = call i32 (ptr, ptr, ...) @fprintf(ptr noundef %58, ptr noundef nonnull @.str.74, ptr noundef nonnull @.str.59, i32 noundef %55) #17
  br label %check_retval.exit30

check_retval.exit30:                              ; preds = %54, %57
  %60 = call i32 @CVodeGetNumRhsEvalsSens(ptr noundef %0, ptr noundef nonnull %13) #13
  %61 = icmp slt i32 %60, 0
  br i1 %61, label %62, label %check_retval.exit32

62:                                               ; preds = %check_retval.exit30
  %63 = load ptr, ptr @stderr, align 8, !tbaa !9
  %64 = call i32 (ptr, ptr, ...) @fprintf(ptr noundef %63, ptr noundef nonnull @.str.74, ptr noundef nonnull @.str.60, i32 noundef %60) #17
  br label %check_retval.exit32

check_retval.exit32:                              ; preds = %check_retval.exit30, %62
  %65 = call i32 @CVodeGetSensNumLinSolvSetups(ptr noundef %0, ptr noundef nonnull %14) #13
  %66 = icmp slt i32 %65, 0
  br i1 %66, label %67, label %check_retval.exit34

67:                                               ; preds = %check_retval.exit32
  %68 = load ptr, ptr @stderr, align 8, !tbaa !9
  %69 = call i32 (ptr, ptr, ...) @fprintf(ptr noundef %68, ptr noundef nonnull @.str.74, ptr noundef nonnull @.str.61, i32 noundef %65) #17
  br label %check_retval.exit34

check_retval.exit34:                              ; preds = %check_retval.exit32, %67
  %70 = call i32 @CVodeGetSensNumErrTestFails(ptr noundef %0, ptr noundef nonnull %18) #13
  %71 = icmp slt i32 %70, 0
  br i1 %71, label %72, label %check_retval.exit36

72:                                               ; preds = %check_retval.exit34
  %73 = load ptr, ptr @stderr, align 8, !tbaa !9
  %74 = call i32 (ptr, ptr, ...) @fprintf(ptr noundef %73, ptr noundef nonnull @.str.74, ptr noundef nonnull @.str.62, i32 noundef %70) #17
  br label %check_retval.exit36

check_retval.exit36:                              ; preds = %check_retval.exit34, %72
  %75 = call i32 @CVodeGetSensNumNonlinSolvIters(ptr noundef %0, ptr noundef nonnull %15) #13
  %76 = icmp slt i32 %75, 0
  br i1 %76, label %77, label %check_retval.exit38

77:                                               ; preds = %check_retval.exit36
  %78 = load ptr, ptr @stderr, align 8, !tbaa !9
  %79 = call i32 (ptr, ptr, ...) @fprintf(ptr noundef %78, ptr noundef nonnull @.str.74, ptr noundef nonnull @.str.63, i32 noundef %75) #17
  br label %check_retval.exit38

check_retval.exit38:                              ; preds = %check_retval.exit36, %77
  %80 = call i32 @CVodeGetSensNumNonlinSolvConvFails(ptr noundef %0, ptr noundef nonnull %16) #13
  %81 = icmp slt i32 %80, 0
  br i1 %81, label %82, label %check_retval.exit40

82:                                               ; preds = %check_retval.exit38
  %83 = load ptr, ptr @stderr, align 8, !tbaa !9
  %84 = call i32 (ptr, ptr, ...) @fprintf(ptr noundef %83, ptr noundef nonnull @.str.74, ptr noundef nonnull @.str.64, i32 noundef %80) #17
  br label %check_retval.exit40

check_retval.exit40:                              ; preds = %check_retval.exit38, %82
  %85 = call i32 @CVodeGetNumStepSensSolveFails(ptr noundef %0, ptr noundef nonnull %17) #13
  %86 = icmp slt i32 %85, 0
  br i1 %86, label %87, label %check_retval.exit42

87:                                               ; preds = %check_retval.exit40
  %88 = load ptr, ptr @stderr, align 8, !tbaa !9
  %89 = call i32 (ptr, ptr, ...) @fprintf(ptr noundef %88, ptr noundef nonnull @.str.74, ptr noundef nonnull @.str.65, i32 noundef %85) #17
  br label %check_retval.exit42

check_retval.exit42:                              ; preds = %87, %check_retval.exit40, %check_retval.exit28
  %90 = call i32 @CVodeGetNumJacEvals(ptr noundef %0, ptr noundef nonnull %6) #13
  %91 = icmp slt i32 %90, 0
  br i1 %91, label %92, label %check_retval.exit44

92:                                               ; preds = %check_retval.exit42
  %93 = load ptr, ptr @stderr, align 8, !tbaa !9
  %94 = call i32 (ptr, ptr, ...) @fprintf(ptr noundef %93, ptr noundef nonnull @.str.74, ptr noundef nonnull @.str.66, i32 noundef %90) #17
  br label %check_retval.exit44

check_retval.exit44:                              ; preds = %check_retval.exit42, %92
  %95 = call i32 @CVodeGetNumLinRhsEvals(ptr noundef %0, ptr noundef nonnull %11) #13
  %96 = icmp slt i32 %95, 0
  br i1 %96, label %97, label %check_retval.exit46

97:                                               ; preds = %check_retval.exit44
  %98 = load ptr, ptr @stderr, align 8, !tbaa !9
  %99 = call i32 (ptr, ptr, ...) @fprintf(ptr noundef %98, ptr noundef nonnull @.str.74, ptr noundef nonnull @.str.67, i32 noundef %95) #17
  br label %check_retval.exit46

check_retval.exit46:                              ; preds = %check_retval.exit44, %97
  %puts = call i32 @puts(ptr nonnull dereferenceable(1) @str.6)
  %100 = load i64, ptr %3, align 8, !tbaa !34
  %101 = load i64, ptr %4, align 8, !tbaa !34
  %102 = load i64, ptr %5, align 8, !tbaa !34
  %103 = load i64, ptr %11, align 8, !tbaa !34
  %104 = load i64, ptr %6, align 8, !tbaa !34
  %105 = call i32 (ptr, ...) @printf(ptr noundef nonnull dereferenceable(1) @.str.69, i64 noundef %100, i64 noundef %101, i64 noundef %102, i64 noundef %103, i64 noundef %104)
  %106 = load i64, ptr %7, align 8, !tbaa !34
  %107 = load i64, ptr %8, align 8, !tbaa !34
  %108 = load i64, ptr %10, align 8, !tbaa !34
  %109 = load i64, ptr %9, align 8, !tbaa !34
  %110 = call i32 (ptr, ...) @printf(ptr noundef nonnull dereferenceable(1) @.str.70, i64 noundef %106, i64 noundef %107, i64 noundef %108, i64 noundef %109)
  br i1 %.not, label %121, label %111

111:                                              ; preds = %check_retval.exit46
  %112 = load i64, ptr %12, align 8, !tbaa !34
  %113 = load i64, ptr %13, align 8, !tbaa !34
  %114 = load i64, ptr %14, align 8, !tbaa !34
  %115 = call i32 (ptr, ...) @printf(ptr noundef nonnull dereferenceable(1) @.str.71, i64 noundef %112, i64 noundef %113, i64 noundef %114)
  %116 = load i64, ptr %15, align 8, !tbaa !34
  %117 = load i64, ptr %16, align 8, !tbaa !34
  %118 = load i64, ptr %18, align 8, !tbaa !34
  %119 = load i64, ptr %17, align 8, !tbaa !34
  %120 = call i32 (ptr, ...) @printf(ptr noundef nonnull dereferenceable(1) @.str.72, i64 noundef %116, i64 noundef %117, i64 noundef %118, i64 noundef %119)
  br label %121

121:                                              ; preds = %111, %check_retval.exit46
  call void @llvm.lifetime.end.p0(i64 8, ptr nonnull %18) #13
  call void @llvm.lifetime.end.p0(i64 8, ptr nonnull %17) #13
  call void @llvm.lifetime.end.p0(i64 8, ptr nonnull %16) #13
  call void @llvm.lifetime.end.p0(i64 8, ptr nonnull %15) #13
  call void @llvm.lifetime.end.p0(i64 8, ptr nonnull %14) #13
  call void @llvm.lifetime.end.p0(i64 8, ptr nonnull %13) #13
  call void @llvm.lifetime.end.p0(i64 8, ptr nonnull %12) #13
  call void @llvm.lifetime.end.p0(i64 8, ptr nonnull %11) #13
  call void @llvm.lifetime.end.p0(i64 8, ptr nonnull %10) #13
  call void @llvm.lifetime.end.p0(i64 8, ptr nonnull %9) #13
  call void @llvm.lifetime.end.p0(i64 8, ptr nonnull %8) #13
  call void @llvm.lifetime.end.p0(i64 8, ptr nonnull %7) #13
  call void @llvm.lifetime.end.p0(i64 8, ptr nonnull %6) #13
  call void @llvm.lifetime.end.p0(i64 8, ptr nonnull %5) #13
  call void @llvm.lifetime.end.p0(i64 8, ptr nonnull %4) #13
  call void @llvm.lifetime.end.p0(i64 8, ptr nonnull %3) #13
  ret void
}